target datalayout = "e-m:e-p270:32:32-p271:32:32-p272:64:64-i64:64-i128:128-f80:128-n8:16:32:64-S128"
target triple = "x86_64-pc-linux-gnu"

; Function Attrs: nounwind uwtable
define internal i32 @parse_expected_key_type(ptr noundef %0, ptr noundef %1) #0 {
  %3 = alloca i32, align 4
  %4 = alloca ptr, align 8
  %5 = alloca ptr, align 8
  %6 = alloca i32, align 4
  %7 = alloca ptr, align 8
  %8 = alloca i32, align 4
  store ptr %0, ptr %4, align 8, !tbaa !77
  store ptr %1, ptr %5, align 8, !tbaa !38
  call void @llvm.lifetime.start.p0(i64 4, ptr %6) #7
  call void @llvm.lifetime.start.p0(i64 8, ptr %7) #7
  %9 = load ptr, ptr %5, align 8, !tbaa !38
  %10 = icmp eq ptr %9, null
  br i1 %10, label %11, label %12

11:                                               ; preds = %2
  store i32 0, ptr %3, align 4
  store i32 1, ptr %8, align 4
  br label %47

12:                                               ; preds = %2
  %13 = load ptr, ptr %5, align 8, !tbaa !38
  %14 = call ptr @EVP_PKEY_asn1_find_str(ptr noundef null, ptr noundef %13, i32 noundef -1)
  store ptr %14, ptr %7, align 8, !tbaa !94
  %15 = load ptr, ptr %7, align 8, !tbaa !94
  %16 = icmp ne ptr %15, null
  br i1 %16, label %17, label %20

17:                                               ; preds = %12
  %18 = load ptr, ptr %7, align 8, !tbaa !94
  %19 = call i32 @EVP_PKEY_asn1_get0_info(ptr noundef %6, ptr noundef null, ptr noundef null, ptr noundef null, ptr noundef null, ptr noundef %18)
  br label %23

20:                                               ; preds = %12
  %21 = load ptr, ptr %5, align 8, !tbaa !38
  %22 = call i32 @OBJ_sn2nid(ptr noundef %21)
  store i32 %22, ptr %6, align 4, !tbaa !4
  br label %23

23:                                               ; preds = %20, %17
  %24 = load i32, ptr %6, align 4, !tbaa !4
  %25 = icmp eq i32 %24, 0
  br i1 %25, label %26, label %29

26:                                               ; preds = %23
  %27 = load ptr, ptr %5, align 8, !tbaa !38
  %28 = call i32 @OBJ_ln2nid(ptr noundef %27)
  store i32 %28, ptr %6, align 4, !tbaa !4
  br label %29

29:                                               ; preds = %26, %23
  %30 = load i32, ptr %6, align 4, !tbaa !4
  %31 = icmp eq i32 %30, 0
  br i1 %31, label %32, label %35

32:                                               ; preds = %29
  %33 = load ptr, ptr %5, align 8, !tbaa !38
  %34 = call i32 @EC_curve_nist2nid(ptr noundef %33)
  store i32 %34, ptr %6, align 4, !tbaa !4
  br label %35

35:                                               ; preds = %32, %29
  %36 = load i32, ptr %6, align 4, !tbaa !4
  switch i32 %36, label %40 [
    i32 1285, label %37
    i32 1286, label %38
    i32 1287, label %39
  ]

37:                                               ; preds = %35
  store i32 927, ptr %6, align 4, !tbaa !4
  br label %40

38:                                               ; preds = %35
  store i32 931, ptr %6, align 4, !tbaa !4
  br label %40

39:                                               ; preds = %35
  store i32 933, ptr %6, align 4, !tbaa !4
  br label %40

40:                                               ; preds = %35, %39, %38, %37
  %41 = load i32, ptr %6, align 4, !tbaa !4
  %42 = icmp eq i32 %41, 0
  br i1 %42, label %43, label %44

43:                                               ; preds = %40
  store i32 0, ptr %3, align 4
  store i32 1, ptr %8, align 4
  br label %47

44:                                               ; preds = %40
  %45 = load i32, ptr %6, align 4, !tbaa !4
  %46 = load ptr, ptr %4, align 8, !tbaa !77
  store i32 %45, ptr %46, align 4, !tbaa !4
  store i32 1, ptr %3, align 4
  store i32 1, ptr %8, align 4
  br label %47

47:                                               ; preds = %44, %43, %11
  call void @llvm.lifetime.end.p0(i64 8, ptr %7) #7
  call void @llvm.lifetime.end.p0(i64 4, ptr %6) #7
  %48 = load i32, ptr %3, align 4
  ret i32 %48
}