; Function Attrs: nounwind uwtable
define internal fastcc range(i32 0, 2) i32 @parse_expected_key_type(ptr noundef writeonly captures(none) %0, ptr noundef %1) unnamed_addr #1 {
  %3 = alloca i32, align 4
  call void @llvm.lifetime.start.p0(i64 4, ptr nonnull %3) #8
  %4 = icmp eq ptr %1, null
  br i1 %4, label %20, label %5

5:                                                ; preds = %2
  %6 = tail call ptr @EVP_PKEY_asn1_find_str(ptr noundef null, ptr noundef nonnull %1, i32 noundef -1) #8
  %.not = icmp eq ptr %6, null
  br i1 %.not, label %9, label %7

7:                                                ; preds = %5
  %8 = call i32 @EVP_PKEY_asn1_get0_info(ptr noundef nonnull %3, ptr noundef null, ptr noundef null, ptr noundef null, ptr noundef null, ptr noundef nonnull %6) #8
  %.pr = load i32, ptr %3, align 4, !tbaa !67
  br label %11

9:                                                ; preds = %5
  %10 = tail call i32 @OBJ_sn2nid(ptr noundef nonnull %1) #8
  store i32 %10, ptr %3, align 4, !tbaa !67
  br label %11

11:                                               ; preds = %9, %7
  %.pr11 = phi i32 [ %10, %9 ], [ %.pr, %7 ]
  %12 = icmp eq i32 %.pr11, 0
  br i1 %12, label %thread-pre-split, label %thread-pre-split12

thread-pre-split:                                 ; preds = %11
  %13 = call i32 @OBJ_ln2nid(ptr noundef nonnull %1) #8
  store i32 %13, ptr %3, align 4, !tbaa !67
  %14 = icmp eq i32 %13, 0
  br i1 %14, label %15, label %thread-pre-split12

15:                                               ; preds = %thread-pre-split
  %16 = call i32 @EC_curve_nist2nid(ptr noundef nonnull %1) #8
  br label %thread-pre-split12

thread-pre-split12:                               ; preds = %11, %thread-pre-split, %15
  %.pr15 = phi i32 [ %16, %15 ], [ %13, %thread-pre-split ], [ %.pr11, %11 ]
  switch i32 %.pr15, label %.thread.fold.split [
    i32 1285, label %.thread
    i32 1286, label %17
    i32 1287, label %18
    i32 0, label %20
  ]

17:                                               ; preds = %thread-pre-split12
  br label %.thread

18:                                               ; preds = %thread-pre-split12
  br label %.thread

.thread.fold.split:                               ; preds = %thread-pre-split12
  br label %.thread

.thread:                                          ; preds = %thread-pre-split12, %.thread.fold.split, %17, %18
  %19 = phi i32 [ 931, %17 ], [ 933, %18 ], [ 927, %thread-pre-split12 ], [ %.pr15, %.thread.fold.split ]
  store i32 %19, ptr %0, align 4, !tbaa !67
  br label %20

20:                                               ; preds = %thread-pre-split12, %2, %.thread
  %.0 = phi i32 [ 1, %.thread ], [ 0, %2 ], [ %.pr15, %thread-pre-split12 ]
  call void @llvm.lifetime.end.p0(i64 4, ptr nonnull %3) #8
  ret i32 %.0
}